; Function Attrs: mustprogress nounwind uwtable
define internal fastcc void @_ZNSt6vectorIN12_GLOBAL__N_110CapabilityIN5Yosys10MemLibrary12ResetValKindEEESaIS5_EED2Ev(ptr noundef nonnull readonly align 8 captures(none) dereferenceable(24) %0) unnamed_addr #8 align 2 personality ptr @__gxx_personality_v0 {
  %2 = load ptr, ptr %0, align 8, !tbaa !185
  %3 = getelementptr inbounds nuw i8, ptr %0, i64 8
  %4 = load ptr, ptr %3, align 8, !tbaa !186
  %.not4.i.i.i = icmp eq ptr %2, %4
  br i1 %.not4.i.i.i, label %_ZSt8_DestroyIPN12_GLOBAL__N_110CapabilityIN5Yosys10MemLibrary12ResetValKindEEES5_EvT_S7_RSaIT0_E.exit, label %.lr.ph.i.i.i

.lr.ph.i.i.i:                                     ; preds = %1, %.lr.ph.i.i.i
  %.05.i.i.i = phi ptr [ %5, %.lr.ph.i.i.i ], [ %2, %1 ]
  tail call fastcc void @_ZN12_GLOBAL__N_110CapabilityIN5Yosys10MemLibrary12ResetValKindEED2Ev(ptr noundef nonnull readonly align 8 dereferenceable(120) %.05.i.i.i) #27
  %5 = getelementptr inbounds nuw i8, ptr %.05.i.i.i, i64 120
  %.not.i.i.i = icmp eq ptr %5, %4
  br i1 %.not.i.i.i, label %_ZSt8_DestroyIPN12_GLOBAL__N_110CapabilityIN5Yosys10MemLibrary12ResetValKindEEES5_EvT_S7_RSaIT0_E.exitthread-pre-split, label %.lr.ph.i.i.i, !llvm.loop !187

_ZSt8_DestroyIPN12_GLOBAL__N_110CapabilityIN5Yosys10MemLibrary12ResetValKindEEES5_EvT_S7_RSaIT0_E.exitthread-pre-split: ; preds = %.lr.ph.i.i.i
  %.val.pr = load ptr, ptr %0, align 8, !tbaa !185
  br label %_ZSt8_DestroyIPN12_GLOBAL__N_110CapabilityIN5Yosys10MemLibrary12ResetValKindEEES5_EvT_S7_RSaIT0_E.exit

_ZSt8_DestroyIPN12_GLOBAL__N_110CapabilityIN5Yosys10MemLibrary12ResetValKindEEES5_EvT_S7_RSaIT0_E.exit: ; preds = %_ZSt8_DestroyIPN12_GLOBAL__N_110CapabilityIN5Yosys10MemLibrary12ResetValKindEEES5_EvT_S7_RSaIT0_E.exitthread-pre-split, %1
  %.val = phi ptr [ %.val.pr, %_ZSt8_DestroyIPN12_GLOBAL__N_110CapabilityIN5Yosys10MemLibrary12ResetValKindEEES5_EvT_S7_RSaIT0_E.exitthread-pre-split ], [ %2, %1 ]
  %.not.i.i = icmp eq ptr %.val, null
  br i1 %.not.i.i, label %_ZNSt12_Vector_baseIN12_GLOBAL__N_110CapabilityIN5Yosys10MemLibrary12ResetValKindEEESaIS5_EED2Ev.exit, label %6

6:                                                ; preds = %_ZSt8_DestroyIPN12_GLOBAL__N_110CapabilityIN5Yosys10MemLibrary12ResetValKindEEES5_EvT_S7_RSaIT0_E.exit
  %7 = getelementptr inbounds nuw i8, ptr %0, i64 16
  %.val1 = load ptr, ptr %7, align 8, !tbaa !188
  %8 = ptrtoint ptr %.val1 to i64
  %9 = ptrtoint ptr %.val to i64
  %10 = sub i64 %8, %9
  tail call void @_ZdlPvm(ptr noundef nonnull %.val, i64 noundef %10) #28
  br label %_ZNSt12_Vector_baseIN12_GLOBAL__N_110CapabilityIN5Yosys10MemLibrary12ResetValKindEEESaIS5_EED2Ev.exit

_ZNSt12_Vector_baseIN12_GLOBAL__N_110CapabilityIN5Yosys10MemLibrary12ResetValKindEEESaIS5_EED2Ev.exit: ; preds = %_ZSt8_DestroyIPN12_GLOBAL__N_110CapabilityIN5Yosys10MemLibrary12ResetValKindEEES5_EvT_S7_RSaIT0_E.exit, %6
  ret void
}